target datalayout = "e-m:e-p270:32:32-p271:32:32-p272:64:64-i64:64-i128:128-f80:128-n8:16:32:64-S128"
target triple = "x86_64-pc-linux-gnu"

%struct._object = type { i64, ptr }
%"struct.nanobind::detail::nb_bound_method" = type { %struct._object, ptr, ptr, ptr }

; Function Attrs: inlinehint mustprogress uwtable
define internal void @_ZL10_Py_DECREFP7_object(ptr noundef %0) #3 {
  %2 = alloca ptr, align 8
  store ptr %0, ptr %2, align 8
  %3 = load ptr, ptr %2, align 8
  %4 = getelementptr inbounds nuw %struct._object, ptr %3, i32 0, i32 0
  %5 = load i64, ptr %4, align 8
  %6 = add nsw i64 %5, -1
  store i64 %6, ptr %4, align 8
  %7 = icmp ne i64 %6, 0
  br i1 %7, label %8, label %9

8:                                                ; preds = %1
  br label %11

9:                                                ; preds = %1
  %10 = load ptr, ptr %2, align 8
  call void @_Py_Dealloc(ptr noundef %10)
  br label %11

11:                                               ; preds = %9, %8
  ret void
}

; Function Attrs: mustprogress uwtable
define hidden noundef i32 @_ZN8nanobind6detail21nb_bound_method_clearEP7_object(ptr noundef %0) #0 {
  %2 = alloca ptr, align 8
  %3 = alloca ptr, align 8
  %4 = alloca ptr, align 8
  %5 = alloca ptr, align 8
  store ptr %0, ptr %2, align 8
  call void @llvm.lifetime.start.p0(i64 8, ptr %3) #22
  %6 = load ptr, ptr %2, align 8
  store ptr %6, ptr %3, align 8
  br label %7

7:                                                ; preds = %1
  call void @llvm.lifetime.start.p0(i64 8, ptr %4) #22
  %8 = load ptr, ptr %3, align 8
  %9 = getelementptr inbounds nuw %"struct.nanobind::detail::nb_bound_method", ptr %8, i32 0, i32 2
  %10 = load ptr, ptr %9, align 8
  store ptr %10, ptr %4, align 8
  %11 = load ptr, ptr %4, align 8
  %12 = icmp ne ptr %11, null
  br i1 %12, label %13, label %17

13:                                               ; preds = %7
  %14 = load ptr, ptr %3, align 8
  %15 = getelementptr inbounds nuw %"struct.nanobind::detail::nb_bound_method", ptr %14, i32 0, i32 2
  store ptr null, ptr %15, align 8
  %16 = load ptr, ptr %4, align 8
  call void @_ZL10_Py_DECREFP7_object(ptr noundef %16)
  br label %17

17:                                               ; preds = %13, %7
  call void @llvm.lifetime.end.p0(i64 8, ptr %4) #22
  br label %18

18:                                               ; preds = %17
  br label %19

19:                                               ; preds = %18
  br label %20

20:                                               ; preds = %19
  call void @llvm.lifetime.start.p0(i64 8, ptr %5) #22
  %21 = load ptr, ptr %3, align 8
  %22 = getelementptr inbounds nuw %"struct.nanobind::detail::nb_bound_method", ptr %21, i32 0, i32 3
  %23 = load ptr, ptr %22, align 8
  store ptr %23, ptr %5, align 8
  %24 = load ptr, ptr %5, align 8
  %25 = icmp ne ptr %24, null
  br i1 %25, label %26, label %30

26:                                               ; preds = %20
  %27 = load ptr, ptr %3, align 8
  %28 = getelementptr inbounds nuw %"struct.nanobind::detail::nb_bound_method", ptr %27, i32 0, i32 3
  store ptr null, ptr %28, align 8
  %29 = load ptr, ptr %5, align 8
  call void @_ZL10_Py_DECREFP7_object(ptr noundef %29)
  br label %30

30:                                               ; preds = %26, %20
  call void @llvm.lifetime.end.p0(i64 8, ptr %5) #22
  br label %31

31:                                               ; preds = %30
  br label %32

32:                                               ; preds = %31
  call void @llvm.lifetime.end.p0(i64 8, ptr %3) #22
  ret i32 0
}