; Function Attrs: mustprogress uwtable
define hidden noundef i32 @_ZN8nanobind6detail21nb_bound_method_clearEP7_object(ptr noundef captures(none) %0) local_unnamed_addr #0 {
  %2 = getelementptr inbounds nuw i8, ptr %0, i64 24
  %3 = load ptr, ptr %2, align 8
  %.not = icmp eq ptr %3, null
  br i1 %.not, label %_ZL10_Py_DECREFP7_object.exit, label %4

4:                                                ; preds = %1
  store ptr null, ptr %2, align 8
  %5 = load i64, ptr %3, align 8
  %6 = add nsw i64 %5, -1
  store i64 %6, ptr %3, align 8
  %.not.i = icmp eq i64 %6, 0
  br i1 %.not.i, label %7, label %_ZL10_Py_DECREFP7_object.exit

7:                                                ; preds = %4
  tail call void @_Py_Dealloc(ptr noundef nonnull %3)
  br label %_ZL10_Py_DECREFP7_object.exit

_ZL10_Py_DECREFP7_object.exit:                    ; preds = %7, %4, %1
  %8 = getelementptr inbounds nuw i8, ptr %0, i64 32
  %9 = load ptr, ptr %8, align 8
  %.not10 = icmp eq ptr %9, null
  br i1 %.not10, label %_ZL10_Py_DECREFP7_object.exit12, label %10

10:                                               ; preds = %_ZL10_Py_DECREFP7_object.exit
  store ptr null, ptr %8, align 8
  %11 = load i64, ptr %9, align 8
  %12 = add nsw i64 %11, -1
  store i64 %12, ptr %9, align 8
  %.not.i11 = icmp eq i64 %12, 0
  br i1 %.not.i11, label %13, label %_ZL10_Py_DECREFP7_object.exit12

13:                                               ; preds = %10
  tail call void @_Py_Dealloc(ptr noundef nonnull %9)
  br label %_ZL10_Py_DECREFP7_object.exit12

_ZL10_Py_DECREFP7_object.exit12:                  ; preds = %13, %10, %_ZL10_Py_DECREFP7_object.exit
  ret i32 0
}